; Function Attrs: inlinehint mustprogress nounwind uwtable
define internal void @"_ZZN9grpc_core11CallFilters12StackBuilder14AddOwnedObjectINS_14filters_detail33ServerTrailingMetadataInterceptorIZNS_13ClientChannel36UpdateServiceConfigInDataPlaneLockedERKNS_11ChannelArgsEE3$_0EEEEvSt10unique_ptrIT_St14default_deleteISC_EEENUlPvE_8__invokeESG_"(ptr noundef %0) #16 align 2 {
  %2 = icmp eq ptr %0, null
  br i1 %2, label %"_ZZN9grpc_core11CallFilters12StackBuilder14AddOwnedObjectINS_14filters_detail33ServerTrailingMetadataInterceptorIZNS_13ClientChannel36UpdateServiceConfigInDataPlaneLockedERKNS_11ChannelArgsEE3$_0EEEEvSt10unique_ptrIT_St14default_deleteISC_EEENKUlPvE_clESG_.exit", label %3

3:                                                ; preds = %1
  tail call void @_ZdlPvm(ptr noundef nonnull %0, i64 noundef 8) #46
  br label %"_ZZN9grpc_core11CallFilters12StackBuilder14AddOwnedObjectINS_14filters_detail33ServerTrailingMetadataInterceptorIZNS_13ClientChannel36UpdateServiceConfigInDataPlaneLockedERKNS_11ChannelArgsEE3$_0EEEEvSt10unique_ptrIT_St14default_deleteISC_EEENKUlPvE_clESG_.exit"

"_ZZN9grpc_core11CallFilters12StackBuilder14AddOwnedObjectINS_14filters_detail33ServerTrailingMetadataInterceptorIZNS_13ClientChannel36UpdateServiceConfigInDataPlaneLockedERKNS_11ChannelArgsEE3$_0EEEEvSt10unique_ptrIT_St14default_deleteISC_EEENKUlPvE_clESG_.exit": ; preds = %1, %3
  ret void
}